target datalayout = "e-m:e-p270:32:32-p271:32:32-p272:64:64-i64:64-i128:128-f80:128-n8:16:32:64-S128"
target triple = "x86_64-unknown-linux-gnu"

%"class.icu_75::UTF8CollationIterator" = type { %"class.icu_75::CollationIterator.base", ptr, i32, i32 }
%"class.icu_75::CollationIterator.base" = type <{ %"class.icu_75::UObject", ptr, ptr, %"class.icu_75::CollationIterator::CEBuffer", i32, [4 x i8], ptr, i32, i8 }>
%"class.icu_75::UObject" = type { ptr }
%"class.icu_75::CollationIterator::CEBuffer" = type { i32, %"class.icu_75::MaybeStackArray.0" }
%"class.icu_75::MaybeStackArray.0" = type { ptr, i32, i8, [40 x i64] }

@.str = private unnamed_addr constant [17 x i8] c" 000000000000\1000\00", align 1
@.str.1 = private unnamed_addr constant [17 x i8] c"\00\00\00\00\00\00\00\00\1E\0F\0F\0F\00\00\00\00\00", align 1

; Function Attrs: mustprogress nounwind uwtable
define void @_ZN6icu_7521UTF8CollationIterator20forwardNumCodePointsEiR10UErrorCode(ptr noundef nonnull align 8 dereferenceable(408) %this, i32 noundef %num, ptr noundef nonnull align 4 dereferenceable(4) %0) unnamed_addr #0 align 2 {
entry:
  %this.addr = alloca ptr, align 8
  %num.addr = alloca i32, align 4
  %.addr = alloca ptr, align 8
  %__N = alloca i32, align 4
  %__b = alloca i8, align 1
  %__t1 = alloca i8, align 1
  store ptr %this, ptr %this.addr, align 8
  store i32 %num, ptr %num.addr, align 4
  store ptr %0, ptr %.addr, align 8
  %this1 = load ptr, ptr %this.addr, align 8
  br label %do.body

do.body:                                          ; preds = %entry
  %1 = load i32, ptr %num.addr, align 4
  store i32 %1, ptr %__N, align 4
  br label %while.cond

while.cond:                                       ; preds = %do.end, %do.body
  %2 = load i32, ptr %__N, align 4
  %cmp = icmp sgt i32 %2, 0
  br i1 %cmp, label %land.rhs, label %land.end8

land.rhs:                                         ; preds = %while.cond
  %pos = getelementptr inbounds %"class.icu_75::UTF8CollationIterator", ptr %this1, i32 0, i32 2
  %3 = load i32, ptr %pos, align 8
  %length = getelementptr inbounds %"class.icu_75::UTF8CollationIterator", ptr %this1, i32 0, i32 3
  %4 = load i32, ptr %length, align 4
  %cmp2 = icmp slt i32 %3, %4
  br i1 %cmp2, label %lor.end, label %lor.rhs

lor.rhs:                                          ; preds = %land.rhs
  %length3 = getelementptr inbounds %"class.icu_75::UTF8CollationIterator", ptr %this1, i32 0, i32 3
  %5 = load i32, ptr %length3, align 4
  %cmp4 = icmp slt i32 %5, 0
  br i1 %cmp4, label %land.rhs5, label %land.end

land.rhs5:                                        ; preds = %lor.rhs
  %u8 = getelementptr inbounds %"class.icu_75::UTF8CollationIterator", ptr %this1, i32 0, i32 1
  %6 = load ptr, ptr %u8, align 8
  %pos6 = getelementptr inbounds %"class.icu_75::UTF8CollationIterator", ptr %this1, i32 0, i32 2
  %7 = load i32, ptr %pos6, align 8
  %idxprom = sext i32 %7 to i64
  %arrayidx = getelementptr inbounds i8, ptr %6, i64 %idxprom
  %8 = load i8, ptr %arrayidx, align 1
  %conv = zext i8 %8 to i32
  %cmp7 = icmp ne i32 %conv, 0
  br label %land.end

land.end:                                         ; preds = %land.rhs5, %lor.rhs
  %9 = phi i1 [ false, %lor.rhs ], [ %cmp7, %land.rhs5 ]
  br label %lor.end

lor.end:                                          ; preds = %land.end, %land.rhs
  %10 = phi i1 [ true, %land.rhs ], [ %9, %land.end ]
  br label %land.end8

land.end8:                                        ; preds = %lor.end, %while.cond
  %11 = phi i1 [ false, %while.cond ], [ %10, %lor.end ]
  br i1 %11, label %while.body, label %while.end

while.body:                                       ; preds = %land.end8
  br label %do.body9

do.body9:                                         ; preds = %while.body
  %u810 = getelementptr inbounds %"class.icu_75::UTF8CollationIterator", ptr %this1, i32 0, i32 1
  %12 = load ptr, ptr %u810, align 8
  %pos11 = getelementptr inbounds %"class.icu_75::UTF8CollationIterator", ptr %this1, i32 0, i32 2
  %13 = load i32, ptr %pos11, align 8
  %inc = add nsw i32 %13, 1
  store i32 %inc, ptr %pos11, align 8
  %idxprom12 = sext i32 %13 to i64
  %arrayidx13 = getelementptr inbounds i8, ptr %12, i64 %idxprom12
  %14 = load i8, ptr %arrayidx13, align 1
  store i8 %14, ptr %__b, align 1
  %15 = load i8, ptr %__b, align 1
  %conv14 = zext i8 %15 to i32
  %sub = sub nsw i32 %conv14, 194
  %conv15 = trunc i32 %sub to i8
  %conv16 = zext i8 %conv15 to i32
  %cmp17 = icmp sle i32 %conv16, 50
  br i1 %cmp17, label %land.lhs.true, label %if.end102

land.lhs.true:                                    ; preds = %do.body9
  %pos18 = getelementptr inbounds %"class.icu_75::UTF8CollationIterator", ptr %this1, i32 0, i32 2
  %16 = load i32, ptr %pos18, align 8
  %length19 = getelementptr inbounds %"class.icu_75::UTF8CollationIterator", ptr %this1, i32 0, i32 3
  %17 = load i32, ptr %length19, align 4
  %cmp20 = icmp ne i32 %16, %17
  br i1 %cmp20, label %if.then, label %if.end102

if.then:                                          ; preds = %land.lhs.true
  %u821 = getelementptr inbounds %"class.icu_75::UTF8CollationIterator", ptr %this1, i32 0, i32 1
  %18 = load ptr, ptr %u821, align 8
  %pos22 = getelementptr inbounds %"class.icu_75::UTF8CollationIterator", ptr %this1, i32 0, i32 2
  %19 = load i32, ptr %pos22, align 8
  %idxprom23 = sext i32 %19 to i64
  %arrayidx24 = getelementptr inbounds i8, ptr %18, i64 %idxprom23
  %20 = load i8, ptr %arrayidx24, align 1
  store i8 %20, ptr %__t1, align 1
  %21 = load i8, ptr %__b, align 1
  %conv25 = zext i8 %21 to i32
  %cmp26 = icmp sle i32 224, %conv25
  br i1 %cmp26, label %land.lhs.true27, label %if.else

land.lhs.true27:                                  ; preds = %if.then
  %22 = load i8, ptr %__b, align 1
  %conv28 = zext i8 %22 to i32
  %cmp29 = icmp slt i32 %conv28, 240
  br i1 %cmp29, label %if.then30, label %if.else

if.then30:                                        ; preds = %land.lhs.true27
  %23 = load i8, ptr %__b, align 1
  %conv31 = zext i8 %23 to i32
  %and = and i32 %conv31, 15
  %idxprom32 = sext i32 %and to i64
  %arrayidx33 = getelementptr inbounds [17 x i8], ptr @.str, i64 0, i64 %idxprom32
  %24 = load i8, ptr %arrayidx33, align 1
  %conv34 = sext i8 %24 to i32
  %25 = load i8, ptr %__t1, align 1
  %conv35 = zext i8 %25 to i32
  %shr = ashr i32 %conv35, 5
  %shl = shl i32 1, %shr
  %and36 = and i32 %conv34, %shl
  %tobool = icmp ne i32 %and36, 0
  br i1 %tobool, label %land.lhs.true37, label %if.end

land.lhs.true37:                                  ; preds = %if.then30
  %pos38 = getelementptr inbounds %"class.icu_75::UTF8CollationIterator", ptr %this1, i32 0, i32 2
  %26 = load i32, ptr %pos38, align 8
  %inc39 = add nsw i32 %26, 1
  store i32 %inc39, ptr %pos38, align 8
  %length40 = getelementptr inbounds %"class.icu_75::UTF8CollationIterator", ptr %this1, i32 0, i32 3
  %27 = load i32, ptr %length40, align 4
  %cmp41 = icmp ne i32 %inc39, %27
  br i1 %cmp41, label %land.lhs.true42, label %if.end

land.lhs.true42:                                  ; preds = %land.lhs.true37
  %u843 = getelementptr inbounds %"class.icu_75::UTF8CollationIterator", ptr %this1, i32 0, i32 1
  %28 = load ptr, ptr %u843, align 8
  %pos44 = getelementptr inbounds %"class.icu_75::UTF8CollationIterator", ptr %this1, i32 0, i32 2
  %29 = load i32, ptr %pos44, align 8
  %idxprom45 = sext i32 %29 to i64
  %arrayidx46 = getelementptr inbounds i8, ptr %28, i64 %idxprom45
  %30 = load i8, ptr %arrayidx46, align 1
  %conv47 = sext i8 %30 to i32
  %cmp48 = icmp slt i32 %conv47, -64
  br i1 %cmp48, label %if.then49, label %if.end

if.then49:                                        ; preds = %land.lhs.true42
  %pos50 = getelementptr inbounds %"class.icu_75::UTF8CollationIterator", ptr %this1, i32 0, i32 2
  %31 = load i32, ptr %pos50, align 8
  %inc51 = add nsw i32 %31, 1
  store i32 %inc51, ptr %pos50, align 8
  br label %if.end

if.end:                                           ; preds = %if.then49, %land.lhs.true42, %land.lhs.true37, %if.then30
  br label %if.end101

if.else:                                          ; preds = %land.lhs.true27, %if.then
  %32 = load i8, ptr %__b, align 1
  %conv52 = zext i8 %32 to i32
  %cmp53 = icmp slt i32 %conv52, 224
  br i1 %cmp53, label %if.then54, label %if.else61

if.then54:                                        ; preds = %if.else
  %33 = load i8, ptr %__t1, align 1
  %conv55 = sext i8 %33 to i32
  %cmp56 = icmp slt i32 %conv55, -64
  br i1 %cmp56, label %if.then57, label %if.end60

if.then57:                                        ; preds = %if.then54
  %pos58 = getelementptr inbounds %"class.icu_75::UTF8CollationIterator", ptr %this1, i32 0, i32 2
  %34 = load i32, ptr %pos58, align 8
  %inc59 = add nsw i32 %34, 1
  store i32 %inc59, ptr %pos58, align 8
  br label %if.end60

if.end60:                                         ; preds = %if.then57, %if.then54
  br label %if.end100

if.else61:                                        ; preds = %if.else
  %35 = load i8, ptr %__t1, align 1
  %conv62 = zext i8 %35 to i32
  %shr63 = ashr i32 %conv62, 4
  %idxprom64 = sext i32 %shr63 to i64
  %arrayidx65 = getelementptr inbounds [17 x i8], ptr @.str.1, i64 0, i64 %idxprom64
  %36 = load i8, ptr %arrayidx65, align 1
  %conv66 = sext i8 %36 to i32
  %37 = load i8, ptr %__b, align 1
  %conv67 = zext i8 %37 to i32
  %and68 = and i32 %conv67, 7
  %shl69 = shl i32 1, %and68
  %and70 = and i32 %conv66, %shl69
  %tobool71 = icmp ne i32 %and70, 0
  br i1 %tobool71, label %land.lhs.true72, label %if.end99

land.lhs.true72:                                  ; preds = %if.else61
  %pos73 = getelementptr inbounds %"class.icu_75::UTF8CollationIterator", ptr %this1, i32 0, i32 2
  %38 = load i32, ptr %pos73, align 8
  %inc74 = add nsw i32 %38, 1
  store i32 %inc74, ptr %pos73, align 8
  %length75 = getelementptr inbounds %"class.icu_75::UTF8CollationIterator", ptr %this1, i32 0, i32 3
  %39 = load i32, ptr %length75, align 4
  %cmp76 = icmp ne i32 %inc74, %39
  br i1 %cmp76, label %land.lhs.true77, label %if.end99

land.lhs.true77:                                  ; preds = %land.lhs.true72
  %u878 = getelementptr inbounds %"class.icu_75::UTF8CollationIterator", ptr %this1, i32 0, i32 1
  %40 = load ptr, ptr %u878, align 8
  %pos79 = getelementptr inbounds %"class.icu_75::UTF8CollationIterator", ptr %this1, i32 0, i32 2
  %41 = load i32, ptr %pos79, align 8
  %idxprom80 = sext i32 %41 to i64
  %arrayidx81 = getelementptr inbounds i8, ptr %40, i64 %idxprom80
  %42 = load i8, ptr %arrayidx81, align 1
  %conv82 = sext i8 %42 to i32
  %cmp83 = icmp slt i32 %conv82, -64
  br i1 %cmp83, label %land.lhs.true84, label %if.end99

land.lhs.true84:                                  ; preds = %land.lhs.true77
  %pos85 = getelementptr inbounds %"class.icu_75::UTF8CollationIterator", ptr %this1, i32 0, i32 2
  %43 = load i32, ptr %pos85, align 8
  %inc86 = add nsw i32 %43, 1
  store i32 %inc86, ptr %pos85, align 8
  %length87 = getelementptr inbounds %"class.icu_75::UTF8CollationIterator", ptr %this1, i32 0, i32 3
  %44 = load i32, ptr %length87, align 4
  %cmp88 = icmp ne i32 %inc86, %44
  br i1 %cmp88, label %land.lhs.true89, label %if.end99

land.lhs.true89:                                  ; preds = %land.lhs.true84
  %u890 = getelementptr inbounds %"class.icu_75::UTF8CollationIterator", ptr %this1, i32 0, i32 1
  %45 = load ptr, ptr %u890, align 8
  %pos91 = getelementptr inbounds %"class.icu_75::UTF8CollationIterator", ptr %this1, i32 0, i32 2
  %46 = load i32, ptr %pos91, align 8
  %idxprom92 = sext i32 %46 to i64
  %arrayidx93 = getelementptr inbounds i8, ptr %45, i64 %idxprom92
  %47 = load i8, ptr %arrayidx93, align 1
  %conv94 = sext i8 %47 to i32
  %cmp95 = icmp slt i32 %conv94, -64
  br i1 %cmp95, label %if.then96, label %if.end99

if.then96:                                        ; preds = %land.lhs.true89
  %pos97 = getelementptr inbounds %"class.icu_75::UTF8CollationIterator", ptr %this1, i32 0, i32 2
  %48 = load i32, ptr %pos97, align 8
  %inc98 = add nsw i32 %48, 1
  store i32 %inc98, ptr %pos97, align 8
  br label %if.end99

if.end99:                                         ; preds = %if.then96, %land.lhs.true89, %land.lhs.true84, %land.lhs.true77, %land.lhs.true72, %if.else61
  br label %if.end100

if.end100:                                        ; preds = %if.end99, %if.end60
  br label %if.end101

if.end101:                                        ; preds = %if.end100, %if.end
  br label %if.end102

if.end102:                                        ; preds = %if.end101, %land.lhs.true, %do.body9
  br label %do.end

do.end:                                           ; preds = %if.end102
  %49 = load i32, ptr %__N, align 4
  %dec = add nsw i32 %49, -1
  store i32 %dec, ptr %__N, align 4
  br label %while.cond, !llvm.loop !4

while.end:                                        ; preds = %land.end8
  br label %do.end103

do.end103:                                        ; preds = %while.end
  ret void
}