; Function Attrs: mustprogress nofree norecurse nosync nounwind memory(read, argmem: readwrite, inaccessiblemem: none) uwtable
define void @_ZN6icu_7521UTF8CollationIterator20forwardNumCodePointsEiR10UErrorCode(ptr nocapture noundef nonnull align 8 dereferenceable(408) %this, i32 noundef %num, ptr nocapture nonnull readnone align 4 %0) unnamed_addr #11 align 2 {
entry:
  %cmp11 = icmp sgt i32 %num, 0
  br i1 %cmp11, label %land.rhs.lr.ph, label %do.end103

land.rhs.lr.ph:                                   ; preds = %entry
  %u8 = getelementptr inbounds i8, ptr %this, i64 392
  %pos = getelementptr inbounds i8, ptr %this, i64 400
  %length = getelementptr inbounds i8, ptr %this, i64 404
  %1 = load i32, ptr %length, align 4
  %cmp4 = icmp slt i32 %1, 0
  %2 = load ptr, ptr %u8, align 8
  %pos.promoted = load i32, ptr %pos, align 8
  br label %land.rhs

land.rhs:                                         ; preds = %land.rhs.lr.ph, %do.end
  %3 = phi i32 [ %pos.promoted, %land.rhs.lr.ph ], [ %16, %do.end ]
  %__N.012 = phi i32 [ %num, %land.rhs.lr.ph ], [ %dec, %do.end ]
  %cmp2 = icmp slt i32 %3, %1
  br i1 %cmp2, label %land.rhs.do.body9_crit_edge, label %lor.rhs

land.rhs.do.body9_crit_edge:                      ; preds = %land.rhs
  %.pre = sext i32 %3 to i64
  br label %do.body9

lor.rhs:                                          ; preds = %land.rhs
  br i1 %cmp4, label %land.rhs5, label %do.end103

land.rhs5:                                        ; preds = %lor.rhs
  %idxprom = sext i32 %3 to i64
  %arrayidx = getelementptr inbounds i8, ptr %2, i64 %idxprom
  %4 = load i8, ptr %arrayidx, align 1
  %cmp7.not = icmp eq i8 %4, 0
  br i1 %cmp7.not, label %do.end103, label %do.body9

do.body9:                                         ; preds = %land.rhs.do.body9_crit_edge, %land.rhs5
  %idxprom12.pre-phi = phi i64 [ %.pre, %land.rhs.do.body9_crit_edge ], [ %idxprom, %land.rhs5 ]
  %inc = add nsw i32 %3, 1
  store i32 %inc, ptr %pos, align 8
  %arrayidx13 = getelementptr inbounds i8, ptr %2, i64 %idxprom12.pre-phi
  %5 = load i8, ptr %arrayidx13, align 1
  %conv14 = zext i8 %5 to i32
  %6 = add i8 %5, 11
  %cmp17 = icmp ult i8 %6, -51
  %cmp20.not = icmp eq i32 %inc, %1
  %or.cond10 = select i1 %cmp17, i1 true, i1 %cmp20.not
  br i1 %or.cond10, label %do.end, label %if.then

if.then:                                          ; preds = %do.body9
  %idxprom23 = sext i32 %inc to i64
  %arrayidx24 = getelementptr inbounds i8, ptr %2, i64 %idxprom23
  %7 = load i8, ptr %arrayidx24, align 1
  %8 = and i8 %5, -16
  %or.cond = icmp eq i8 %8, -32
  br i1 %or.cond, label %if.then30, label %if.else

if.then30:                                        ; preds = %if.then
  %and = and i32 %conv14, 15
  %idxprom32 = zext nneg i32 %and to i64
  %arrayidx33 = getelementptr inbounds [17 x i8], ptr @.str, i64 0, i64 %idxprom32
  %9 = load i8, ptr %arrayidx33, align 1
  %conv3413 = zext i8 %9 to i32
  %10 = lshr i8 %7, 5
  %shr = zext nneg i8 %10 to i32
  %shl = shl nuw nsw i32 1, %shr
  %and36 = and i32 %shl, %conv3413
  %tobool.not = icmp eq i32 %and36, 0
  br i1 %tobool.not, label %do.end, label %land.lhs.true37

land.lhs.true37:                                  ; preds = %if.then30
  %inc39 = add nsw i32 %3, 2
  store i32 %inc39, ptr %pos, align 8
  %cmp41.not = icmp eq i32 %inc39, %1
  br i1 %cmp41.not, label %do.end, label %land.lhs.true42

land.lhs.true42:                                  ; preds = %land.lhs.true37
  %idxprom45 = sext i32 %inc39 to i64
  %arrayidx46 = getelementptr inbounds i8, ptr %2, i64 %idxprom45
  %11 = load i8, ptr %arrayidx46, align 1
  %cmp48 = icmp slt i8 %11, -64
  br i1 %cmp48, label %do.end.sink.split, label %do.end

if.else:                                          ; preds = %if.then
  %cmp53 = icmp ult i8 %5, -32
  br i1 %cmp53, label %if.then54, label %if.else61

if.then54:                                        ; preds = %if.else
  %cmp56 = icmp slt i8 %7, -64
  br i1 %cmp56, label %do.end.sink.split, label %do.end

if.else61:                                        ; preds = %if.else
  %12 = lshr i8 %7, 4
  %idxprom64 = zext nneg i8 %12 to i64
  %arrayidx65 = getelementptr inbounds [17 x i8], ptr @.str.1, i64 0, i64 %idxprom64
  %13 = load i8, ptr %arrayidx65, align 1
  %conv6614 = zext i8 %13 to i32
  %and68 = and i32 %conv14, 7
  %shl69 = shl nuw nsw i32 1, %and68
  %and70 = and i32 %shl69, %conv6614
  %tobool71.not = icmp eq i32 %and70, 0
  br i1 %tobool71.not, label %do.end, label %land.lhs.true72

land.lhs.true72:                                  ; preds = %if.else61
  %inc74 = add nsw i32 %3, 2
  store i32 %inc74, ptr %pos, align 8
  %cmp76.not = icmp eq i32 %inc74, %1
  br i1 %cmp76.not, label %do.end, label %land.lhs.true77

land.lhs.true77:                                  ; preds = %land.lhs.true72
  %idxprom80 = sext i32 %inc74 to i64
  %arrayidx81 = getelementptr inbounds i8, ptr %2, i64 %idxprom80
  %14 = load i8, ptr %arrayidx81, align 1
  %cmp83 = icmp slt i8 %14, -64
  br i1 %cmp83, label %land.lhs.true84, label %do.end

land.lhs.true84:                                  ; preds = %land.lhs.true77
  %inc86 = add nsw i32 %3, 3
  store i32 %inc86, ptr %pos, align 8
  %cmp88.not = icmp eq i32 %inc86, %1
  br i1 %cmp88.not, label %do.end, label %land.lhs.true89

land.lhs.true89:                                  ; preds = %land.lhs.true84
  %idxprom92 = sext i32 %inc86 to i64
  %arrayidx93 = getelementptr inbounds i8, ptr %2, i64 %idxprom92
  %15 = load i8, ptr %arrayidx93, align 1
  %cmp95 = icmp slt i8 %15, -64
  br i1 %cmp95, label %do.end.sink.split, label %do.end

do.end.sink.split:                                ; preds = %land.lhs.true89, %if.then54, %land.lhs.true42
  %.sink = phi i32 [ 3, %land.lhs.true42 ], [ 2, %if.then54 ], [ 4, %land.lhs.true89 ]
  %inc51 = add nsw i32 %3, %.sink
  store i32 %inc51, ptr %pos, align 8
  br label %do.end

do.end:                                           ; preds = %do.end.sink.split, %do.body9, %if.then54, %land.lhs.true89, %land.lhs.true84, %land.lhs.true77, %land.lhs.true72, %if.else61, %if.then30, %land.lhs.true37, %land.lhs.true42
  %16 = phi i32 [ %inc, %do.body9 ], [ %inc, %if.then54 ], [ %inc86, %land.lhs.true89 ], [ %1, %land.lhs.true84 ], [ %inc74, %land.lhs.true77 ], [ %1, %land.lhs.true72 ], [ %inc, %if.else61 ], [ %inc, %if.then30 ], [ %1, %land.lhs.true37 ], [ %inc39, %land.lhs.true42 ], [ %inc51, %do.end.sink.split ]
  %dec = add nsw i32 %__N.012, -1
  %cmp = icmp sgt i32 %__N.012, 1
  br i1 %cmp, label %land.rhs, label %do.end103, !llvm.loop !4

do.end103:                                        ; preds = %do.end, %lor.rhs, %land.rhs5, %entry
  ret void
}